target datalayout = "e-m:e-p270:32:32-p271:32:32-p272:64:64-i64:64-i128:128-f80:128-n8:16:32:64-S128"
target triple = "x86_64-pc-linux-gnu"

%"class.YAML::Emitter" = type { %"class.std::unique_ptr", %"class.YAML::ostream_wrapper" }
%"class.std::unique_ptr" = type { %"struct.std::__uniq_ptr_data" }
%"struct.std::__uniq_ptr_data" = type { %"class.std::__uniq_ptr_impl" }
%"class.std::__uniq_ptr_impl" = type { %"class.std::tuple" }
%"class.std::tuple" = type { %"struct.std::_Tuple_impl" }
%"struct.std::_Tuple_impl" = type { %"struct.std::_Head_base.1" }
%"struct.std::_Head_base.1" = type { ptr }
%"class.YAML::ostream_wrapper" = type <{ %"class.std::vector", ptr, i64, i64, i64, i8, [7 x i8] }>
%"class.std::vector" = type { %"struct.std::_Vector_base" }
%"struct.std::_Vector_base" = type { %"struct.std::_Vector_base<char, std::allocator<char>>::_Vector_impl" }
%"struct.std::_Vector_base<char, std::allocator<char>>::_Vector_impl" = type { %"struct.std::_Vector_base<char, std::allocator<char>>::_Vector_impl_data" }
%"struct.std::_Vector_base<char, std::allocator<char>>::_Vector_impl_data" = type { ptr, ptr, ptr }
%"struct.YAML::IndentTo" = type { i64 }

@.str.1 = private unnamed_addr constant [2 x i8] c"\0A\00", align 1
@.str.13 = private unnamed_addr constant [2 x i8] c" \00", align 1

; Function Attrs: inlinehint mustprogress uwtable
define linkonce_odr noundef nonnull align 8 dereferenceable(57) ptr @_ZN4YAMLlsERNS_15ostream_wrapperEc(ptr noundef nonnull align 8 dereferenceable(57) %0, i8 noundef signext %1) #7 comdat {
  %3 = alloca ptr, align 8
  %4 = alloca i8, align 1
  store ptr %0, ptr %3, align 8, !tbaa !17
  store i8 %1, ptr %4, align 1, !tbaa !29
  %5 = load ptr, ptr %3, align 8, !tbaa !17
  call void @_ZN4YAML15ostream_wrapper5writeEPKcm(ptr noundef nonnull align 8 dereferenceable(57) %5, ptr noundef %4, i64 noundef 1)
  %6 = load ptr, ptr %3, align 8, !tbaa !17
  ret ptr %6
}

; Function Attrs: inlinehint mustprogress uwtable
define linkonce_odr noundef nonnull align 8 dereferenceable(57) ptr @_ZN4YAMLlsERNS_15ostream_wrapperERKNS_8IndentToE(ptr noundef nonnull align 8 dereferenceable(57) %0, ptr noundef nonnull align 8 dereferenceable(8) %1) #7 comdat {
  %3 = alloca ptr, align 8
  %4 = alloca ptr, align 8
  store ptr %0, ptr %3, align 8, !tbaa !17
  store ptr %1, ptr %4, align 8, !tbaa !79
  br label %5

5:                                                ; preds = %12, %2
  %6 = load ptr, ptr %3, align 8, !tbaa !17
  %7 = call noundef i64 @_ZNK4YAML15ostream_wrapper3colEv(ptr noundef nonnull align 8 dereferenceable(57) %6)
  %8 = load ptr, ptr %4, align 8, !tbaa !79
  %9 = getelementptr inbounds nuw %"struct.YAML::IndentTo", ptr %8, i32 0, i32 0
  %10 = load i64, ptr %9, align 8, !tbaa !81
  %11 = icmp ult i64 %7, %10
  br i1 %11, label %12, label %15

12:                                               ; preds = %5
  %13 = load ptr, ptr %3, align 8, !tbaa !17
  %14 = call noundef nonnull align 8 dereferenceable(57) ptr @_ZN4YAMLlsERNS_15ostream_wrapperEc(ptr noundef nonnull align 8 dereferenceable(57) %13, i8 noundef signext 32)
  br label %5, !llvm.loop !83

15:                                               ; preds = %5
  %16 = load ptr, ptr %3, align 8, !tbaa !17
  ret ptr %16
}

; Function Attrs: mustprogress nounwind uwtable
define linkonce_odr void @_ZN4YAML8IndentToC2Em(ptr noundef nonnull align 8 dereferenceable(8) %0, i64 noundef %1) unnamed_addr #4 comdat align 2 {
  %3 = alloca ptr, align 8
  %4 = alloca i64, align 8
  store ptr %0, ptr %3, align 8, !tbaa !79
  store i64 %1, ptr %4, align 8, !tbaa !52
  %5 = load ptr, ptr %3, align 8
  %6 = getelementptr inbounds nuw %"struct.YAML::IndentTo", ptr %5, i32 0, i32 0
  %7 = load i64, ptr %4, align 8, !tbaa !52
  store i64 %7, ptr %6, align 8, !tbaa !81
  ret void
}

; Function Attrs: mustprogress nounwind uwtable
define linkonce_odr noundef i64 @_ZNK4YAML15ostream_wrapper3colEv(ptr noundef nonnull align 8 dereferenceable(57) %0) #4 comdat align 2 {
  %2 = alloca ptr, align 8
  store ptr %0, ptr %2, align 8, !tbaa !17
  %3 = load ptr, ptr %2, align 8
  %4 = getelementptr inbounds nuw %"class.YAML::ostream_wrapper", ptr %3, i32 0, i32 4
  %5 = load i64, ptr %4, align 8, !tbaa !74
  ret i64 %5
}

; Function Attrs: inlinehint mustprogress uwtable
define linkonce_odr noundef nonnull align 8 dereferenceable(57) ptr @_ZN4YAMLlsILm2EEERNS_15ostream_wrapperES2_RAT__Kc(ptr noundef nonnull align 8 dereferenceable(57) %0, ptr noundef nonnull align 1 dereferenceable(2) %1) #7 comdat {
  %3 = alloca ptr, align 8
  %4 = alloca ptr, align 8
  store ptr %0, ptr %3, align 8, !tbaa !17
  store ptr %1, ptr %4, align 8, !tbaa !69
  %5 = load ptr, ptr %3, align 8, !tbaa !17
  %6 = load ptr, ptr %4, align 8, !tbaa !69
  %7 = getelementptr inbounds [2 x i8], ptr %6, i64 0, i64 0
  call void @_ZN4YAML15ostream_wrapper5writeEPKcm(ptr noundef nonnull align 8 dereferenceable(57) %5, ptr noundef %7, i64 noundef 1)
  %8 = load ptr, ptr %3, align 8, !tbaa !17
  ret ptr %8
}

; Function Attrs: mustprogress nounwind uwtable
define linkonce_odr noundef zeroext i1 @_ZNK4YAML15ostream_wrapper7commentEv(ptr noundef nonnull align 8 dereferenceable(57) %0) #4 comdat align 2 {
  %2 = alloca ptr, align 8
  store ptr %0, ptr %2, align 8, !tbaa !17
  %3 = load ptr, ptr %2, align 8
  %4 = getelementptr inbounds nuw %"class.YAML::ostream_wrapper", ptr %3, i32 0, i32 5
  %5 = load i8, ptr %4, align 8, !tbaa !77, !range !48, !noundef !49
  %6 = trunc i8 %5 to i1
  ret i1 %6
}

; Function Attrs: mustprogress uwtable
define void @_ZN4YAML7Emitter15SpaceOrIndentToEbm(ptr noundef nonnull align 8 dereferenceable(72) %0, i1 noundef zeroext %1, i64 noundef %2) #0 align 2 {
  %4 = alloca ptr, align 8
  %5 = alloca i8, align 1
  %6 = alloca i64, align 8
  %7 = alloca %"struct.YAML::IndentTo", align 8
  store ptr %0, ptr %4, align 8, !tbaa !3
  %8 = zext i1 %1 to i8
  store i8 %8, ptr %5, align 1, !tbaa !51
  store i64 %2, ptr %6, align 8, !tbaa !52
  %9 = load ptr, ptr %4, align 8
  %10 = getelementptr inbounds nuw %"class.YAML::Emitter", ptr %9, i32 0, i32 1
  %11 = call noundef zeroext i1 @_ZNK4YAML15ostream_wrapper7commentEv(ptr noundef nonnull align 8 dereferenceable(57) %10)
  br i1 %11, label %12, label %15

12:                                               ; preds = %3
  %13 = getelementptr inbounds nuw %"class.YAML::Emitter", ptr %9, i32 0, i32 1
  %14 = call noundef nonnull align 8 dereferenceable(57) ptr @_ZN4YAMLlsILm2EEERNS_15ostream_wrapperES2_RAT__Kc(ptr noundef nonnull align 8 dereferenceable(57) %13, ptr noundef nonnull align 1 dereferenceable(2) @.str.1)
  br label %15

15:                                               ; preds = %12, %3
  %16 = getelementptr inbounds nuw %"class.YAML::Emitter", ptr %9, i32 0, i32 1
  %17 = call noundef i64 @_ZNK4YAML15ostream_wrapper3colEv(ptr noundef nonnull align 8 dereferenceable(57) %16)
  %18 = icmp ugt i64 %17, 0
  br i1 %18, label %19, label %25

19:                                               ; preds = %15
  %20 = load i8, ptr %5, align 1, !tbaa !51, !range !48, !noundef !49
  %21 = trunc i8 %20 to i1
  br i1 %21, label %22, label %25

22:                                               ; preds = %19
  %23 = getelementptr inbounds nuw %"class.YAML::Emitter", ptr %9, i32 0, i32 1
  %24 = call noundef nonnull align 8 dereferenceable(57) ptr @_ZN4YAMLlsILm2EEERNS_15ostream_wrapperES2_RAT__Kc(ptr noundef nonnull align 8 dereferenceable(57) %23, ptr noundef nonnull align 1 dereferenceable(2) @.str.13)
  br label %25

25:                                               ; preds = %22, %19, %15
  %26 = getelementptr inbounds nuw %"class.YAML::Emitter", ptr %9, i32 0, i32 1
  call void @llvm.lifetime.start.p0(i64 8, ptr %7) #14
  %27 = load i64, ptr %6, align 8, !tbaa !52
  call void @_ZN4YAML8IndentToC2Em(ptr noundef nonnull align 8 dereferenceable(8) %7, i64 noundef %27)
  %28 = call noundef nonnull align 8 dereferenceable(57) ptr @_ZN4YAMLlsERNS_15ostream_wrapperERKNS_8IndentToE(ptr noundef nonnull align 8 dereferenceable(57) %26, ptr noundef nonnull align 8 dereferenceable(8) %7)
  call void @llvm.lifetime.end.p0(i64 8, ptr %7) #14
  ret void
}