; Function Attrs: mustprogress uwtable
define void @_ZN4YAML7Emitter15SpaceOrIndentToEbm(ptr noundef nonnull align 8 dereferenceable(72) %0, i1 noundef zeroext %1, i64 noundef %2) local_unnamed_addr #0 align 2 {
  %4 = alloca i8, align 1
  %5 = getelementptr inbounds nuw i8, ptr %0, i64 8
  %6 = getelementptr inbounds nuw i8, ptr %0, i64 64
  %7 = load i8, ptr %6, align 8, !tbaa !51, !range !39, !noundef !40
  %8 = trunc nuw i8 %7 to i1
  br i1 %8, label %9, label %10

9:                                                ; preds = %3
  tail call void @_ZN4YAML15ostream_wrapper5writeEPKcm(ptr noundef nonnull align 8 dereferenceable(57) %5, ptr noundef nonnull @.str.1, i64 noundef 1)
  br label %10

10:                                               ; preds = %9, %3
  %11 = getelementptr inbounds nuw i8, ptr %0, i64 56
  %12 = load i64, ptr %11, align 8, !tbaa !50
  %.not = icmp ne i64 %12, 0
  %brmerge.not = and i1 %1, %.not
  br i1 %brmerge.not, label %13, label %14

13:                                               ; preds = %10
  tail call void @_ZN4YAML15ostream_wrapper5writeEPKcm(ptr noundef nonnull align 8 dereferenceable(57) %5, ptr noundef nonnull @.str.13, i64 noundef 1)
  %.pre = load i64, ptr %11, align 8, !tbaa !50
  br label %14

14:                                               ; preds = %10, %13
  %15 = phi i64 [ %12, %10 ], [ %.pre, %13 ]
  %16 = icmp ult i64 %15, %2
  br i1 %16, label %.lr.ph.i, label %_ZN4YAMLlsERNS_15ostream_wrapperERKNS_8IndentToE.exit

.lr.ph.i:                                         ; preds = %14, %.lr.ph.i
  call void @llvm.lifetime.start.p0(i64 1, ptr nonnull %4)
  store i8 32, ptr %4, align 1, !tbaa !20
  call void @_ZN4YAML15ostream_wrapper5writeEPKcm(ptr noundef nonnull align 8 dereferenceable(57) %5, ptr noundef nonnull %4, i64 noundef 1)
  call void @llvm.lifetime.end.p0(i64 1, ptr nonnull %4)
  %17 = load i64, ptr %11, align 8, !tbaa !50
  %18 = icmp ult i64 %17, %2
  br i1 %18, label %.lr.ph.i, label %_ZN4YAMLlsERNS_15ostream_wrapperERKNS_8IndentToE.exit, !llvm.loop !54

_ZN4YAMLlsERNS_15ostream_wrapperERKNS_8IndentToE.exit: ; preds = %.lr.ph.i, %14
  ret void
}